target datalayout = "e-m:e-p270:32:32-p271:32:32-p272:64:64-i64:64-i128:128-f80:128-n8:16:32:64-S128"
target triple = "x86_64-pc-linux-gnu"

%"class.nanobind::handle" = type { ptr }
%class.anon.441 = type { i8 }
%"class.std::unique_ptr.443" = type { %"struct.std::__uniq_ptr_data.444" }
%"struct.std::__uniq_ptr_data.444" = type { %"class.std::__uniq_ptr_impl.445" }
%"class.std::__uniq_ptr_impl.445" = type { %"class.std::tuple.446" }
%"class.std::tuple.446" = type { %"struct.std::_Tuple_impl.447" }
%"struct.std::_Tuple_impl.447" = type { %"struct.std::_Head_base.450" }
%"struct.std::_Head_base.450" = type { ptr }

; Function Attrs: mustprogress nounwind optsize uwtable
define internal void @_ZNSt10_Head_baseILm1ESt14default_deleteIZL30nanobind_init_test_holders_extRN8nanobind7module_EE15PolymorphicBaseELb1EEC2Ev(ptr noundef nonnull align 1 dereferenceable(1) %0) unnamed_addr #8 align 2 {
  %2 = alloca ptr, align 8
  store ptr %0, ptr %2, align 8, !tbaa !846
  ret void
}

; Function Attrs: mustprogress nounwind optsize uwtable
define internal noundef nonnull align 1 dereferenceable(1) ptr @_ZNSt10_Head_baseILm1ESt14default_deleteIZL30nanobind_init_test_holders_extRN8nanobind7module_EE15PolymorphicBaseELb1EE7_M_headERS6_(ptr noundef nonnull align 1 dereferenceable(1) %0) #8 align 2 {
  %2 = alloca ptr, align 8
  store ptr %0, ptr %2, align 8, !tbaa !846
  %3 = load ptr, ptr %2, align 8, !tbaa !846
  ret ptr %3
}

; Function Attrs: mustprogress nounwind optsize uwtable
define internal void @_ZNSt10_Head_baseILm0EPZL30nanobind_init_test_holders_extRN8nanobind7module_EE15PolymorphicBaseLb0EEC2Ev(ptr noundef nonnull align 8 dereferenceable(8) %0) unnamed_addr #8 align 2 {
  %2 = alloca ptr, align 8
  store ptr %0, ptr %2, align 8, !tbaa !840
  %3 = load ptr, ptr %2, align 8
  %4 = getelementptr inbounds nuw %"struct.std::_Head_base.450", ptr %3, i32 0, i32 0
  store ptr null, ptr %4, align 8, !tbaa !850
  ret void
}

; Function Attrs: mustprogress optsize uwtable
define internal void @_ZNSt11_Tuple_implILm1EJSt14default_deleteIZL30nanobind_init_test_holders_extRN8nanobind7module_EE15PolymorphicBaseEEEC2Ev(ptr noundef nonnull align 1 dereferenceable(1) %0) unnamed_addr #0 align 2 {
  %2 = alloca ptr, align 8
  store ptr %0, ptr %2, align 8, !tbaa !844
  %3 = load ptr, ptr %2, align 8
  call void @_ZNSt10_Head_baseILm1ESt14default_deleteIZL30nanobind_init_test_holders_extRN8nanobind7module_EE15PolymorphicBaseELb1EEC2Ev(ptr noundef nonnull align 1 dereferenceable(1) %3) #19
  ret void
}

; Function Attrs: mustprogress nounwind optsize uwtable
define internal noundef nonnull align 1 dereferenceable(1) ptr @_ZNSt11_Tuple_implILm1EJSt14default_deleteIZL30nanobind_init_test_holders_extRN8nanobind7module_EE15PolymorphicBaseEEE7_M_headERS6_(ptr noundef nonnull align 1 dereferenceable(1) %0) #8 align 2 {
  %2 = alloca ptr, align 8
  store ptr %0, ptr %2, align 8, !tbaa !844
  %3 = load ptr, ptr %2, align 8, !tbaa !844
  %4 = call noundef nonnull align 1 dereferenceable(1) ptr @_ZNSt10_Head_baseILm1ESt14default_deleteIZL30nanobind_init_test_holders_extRN8nanobind7module_EE15PolymorphicBaseELb1EE7_M_headERS6_(ptr noundef nonnull align 1 dereferenceable(1) %3) #21
  ret ptr %4
}

; Function Attrs: mustprogress nounwind optsize uwtable
define internal noundef nonnull align 8 dereferenceable(8) ptr @_ZNSt10_Head_baseILm0EPZL30nanobind_init_test_holders_extRN8nanobind7module_EE15PolymorphicBaseLb0EE7_M_headERS5_(ptr noundef nonnull align 8 dereferenceable(8) %0) #8 align 2 {
  %2 = alloca ptr, align 8
  store ptr %0, ptr %2, align 8, !tbaa !840
  %3 = load ptr, ptr %2, align 8, !tbaa !840
  %4 = getelementptr inbounds nuw %"struct.std::_Head_base.450", ptr %3, i32 0, i32 0
  ret ptr %4
}

; Function Attrs: mustprogress optsize uwtable
define internal void @_ZNSt11_Tuple_implILm0EJPZL30nanobind_init_test_holders_extRN8nanobind7module_EE15PolymorphicBaseSt14default_deleteIS3_EEEC2Ev(ptr noundef nonnull align 8 dereferenceable(8) %0) unnamed_addr #0 align 2 {
  %2 = alloca ptr, align 8
  store ptr %0, ptr %2, align 8, !tbaa !838
  %3 = load ptr, ptr %2, align 8
  call void @_ZNSt11_Tuple_implILm1EJSt14default_deleteIZL30nanobind_init_test_holders_extRN8nanobind7module_EE15PolymorphicBaseEEEC2Ev(ptr noundef nonnull align 1 dereferenceable(1) %3) #19
  call void @_ZNSt10_Head_baseILm0EPZL30nanobind_init_test_holders_extRN8nanobind7module_EE15PolymorphicBaseLb0EEC2Ev(ptr noundef nonnull align 8 dereferenceable(8) %3) #19
  ret void
}

; Function Attrs: mustprogress nounwind optsize uwtable
define internal noundef nonnull align 1 dereferenceable(1) ptr @_ZSt12__get_helperILm1ESt14default_deleteIZL30nanobind_init_test_holders_extRN8nanobind7module_EE15PolymorphicBaseEJEERT0_RSt11_Tuple_implIXT_EJS6_DpT1_EE(ptr noundef nonnull align 1 dereferenceable(1) %0) #8 {
  %2 = alloca ptr, align 8
  store ptr %0, ptr %2, align 8, !tbaa !844
  %3 = load ptr, ptr %2, align 8, !tbaa !844
  %4 = call noundef nonnull align 1 dereferenceable(1) ptr @_ZNSt11_Tuple_implILm1EJSt14default_deleteIZL30nanobind_init_test_holders_extRN8nanobind7module_EE15PolymorphicBaseEEE7_M_headERS6_(ptr noundef nonnull align 1 dereferenceable(1) %3) #21
  ret ptr %4
}

; Function Attrs: mustprogress nounwind optsize uwtable
define internal noundef nonnull align 8 dereferenceable(8) ptr @_ZNSt11_Tuple_implILm0EJPZL30nanobind_init_test_holders_extRN8nanobind7module_EE15PolymorphicBaseSt14default_deleteIS3_EEE7_M_headERS7_(ptr noundef nonnull align 8 dereferenceable(8) %0) #8 align 2 {
  %2 = alloca ptr, align 8
  store ptr %0, ptr %2, align 8, !tbaa !838
  %3 = load ptr, ptr %2, align 8, !tbaa !838
  %4 = call noundef nonnull align 8 dereferenceable(8) ptr @_ZNSt10_Head_baseILm0EPZL30nanobind_init_test_holders_extRN8nanobind7module_EE15PolymorphicBaseLb0EE7_M_headERS5_(ptr noundef nonnull align 8 dereferenceable(8) %3) #21
  ret ptr %4
}

; Function Attrs: mustprogress nounwind optsize uwtable
define internal void @_ZNSt5tupleIJPZL30nanobind_init_test_holders_extRN8nanobind7module_EE15PolymorphicBaseSt14default_deleteIS3_EEEC2ILb1ETnNSt9enable_ifIXclsr17_TupleConstraintsIXT_ES4_S6_EE37__is_implicitly_default_constructibleEEbE4typeELb1EEEv(ptr noundef nonnull align 8 dereferenceable(8) %0) unnamed_addr #8 align 2 personality ptr @__gxx_personality_v0 {
  %2 = alloca ptr, align 8
  store ptr %0, ptr %2, align 8, !tbaa !836
  %3 = load ptr, ptr %2, align 8
  invoke void @_ZNSt11_Tuple_implILm0EJPZL30nanobind_init_test_holders_extRN8nanobind7module_EE15PolymorphicBaseSt14default_deleteIS3_EEEC2Ev(ptr noundef nonnull align 8 dereferenceable(8) %3) #19
          to label %4 unwind label %5

4:                                                ; preds = %1
  ret void

5:                                                ; preds = %1
  %6 = landingpad { ptr, i32 }
          catch ptr null
  %7 = extractvalue { ptr, i32 } %6, 0
  call void @__clang_call_terminate(ptr %7) #22
  unreachable
}

; Function Attrs: mustprogress nounwind optsize uwtable
define internal noundef nonnull align 1 dereferenceable(1) ptr @_ZSt3getILm1EJPZL30nanobind_init_test_holders_extRN8nanobind7module_EE15PolymorphicBaseSt14default_deleteIS3_EEERNSt13tuple_elementIXT_ESt5tupleIJDpT0_EEE4typeERSB_(ptr noundef nonnull align 8 dereferenceable(8) %0) #8 {
  %2 = alloca ptr, align 8
  store ptr %0, ptr %2, align 8, !tbaa !836
  %3 = load ptr, ptr %2, align 8, !tbaa !836
  %4 = call noundef nonnull align 1 dereferenceable(1) ptr @_ZSt12__get_helperILm1ESt14default_deleteIZL30nanobind_init_test_holders_extRN8nanobind7module_EE15PolymorphicBaseEJEERT0_RSt11_Tuple_implIXT_EJS6_DpT1_EE(ptr noundef nonnull align 1 dereferenceable(1) %3) #21
  ret ptr %4
}

; Function Attrs: mustprogress nounwind optsize uwtable
define internal noundef nonnull align 8 dereferenceable(8) ptr @_ZSt12__get_helperILm0EPZL30nanobind_init_test_holders_extRN8nanobind7module_EE15PolymorphicBaseJSt14default_deleteIS3_EEERT0_RSt11_Tuple_implIXT_EJS7_DpT1_EE(ptr noundef nonnull align 8 dereferenceable(8) %0) #8 {
  %2 = alloca ptr, align 8
  store ptr %0, ptr %2, align 8, !tbaa !838
  %3 = load ptr, ptr %2, align 8, !tbaa !838
  %4 = call noundef nonnull align 8 dereferenceable(8) ptr @_ZNSt11_Tuple_implILm0EJPZL30nanobind_init_test_holders_extRN8nanobind7module_EE15PolymorphicBaseSt14default_deleteIS3_EEE7_M_headERS7_(ptr noundef nonnull align 8 dereferenceable(8) %3) #21
  ret ptr %4
}

; Function Attrs: mustprogress nounwind optsize uwtable
define internal void @_ZNSt15__uniq_ptr_implIZL30nanobind_init_test_holders_extRN8nanobind7module_EE15PolymorphicBaseSt14default_deleteIS3_EEC2EPS3_(ptr noundef nonnull align 8 dereferenceable(8) %0, ptr noundef %1) unnamed_addr #8 align 2 {
  %3 = alloca ptr, align 8
  %4 = alloca ptr, align 8
  store ptr %0, ptr %3, align 8, !tbaa !834
  store ptr %1, ptr %4, align 8, !tbaa !822
  %5 = load ptr, ptr %3, align 8
  %6 = getelementptr inbounds nuw %"class.std::__uniq_ptr_impl.445", ptr %5, i32 0, i32 0
  call void @_ZNSt5tupleIJPZL30nanobind_init_test_holders_extRN8nanobind7module_EE15PolymorphicBaseSt14default_deleteIS3_EEEC2ILb1ETnNSt9enable_ifIXclsr17_TupleConstraintsIXT_ES4_S6_EE37__is_implicitly_default_constructibleEEbE4typeELb1EEEv(ptr noundef nonnull align 8 dereferenceable(8) %6) #21
  %7 = load ptr, ptr %4, align 8, !tbaa !822
  %8 = call noundef nonnull align 8 dereferenceable(8) ptr @_ZNSt15__uniq_ptr_implIZL30nanobind_init_test_holders_extRN8nanobind7module_EE15PolymorphicBaseSt14default_deleteIS3_EE6_M_ptrEv(ptr noundef nonnull align 8 dereferenceable(8) %5) #21
  store ptr %7, ptr %8, align 8, !tbaa !822
  ret void
}

; Function Attrs: mustprogress nounwind optsize uwtable
define internal noundef nonnull align 1 dereferenceable(1) ptr @_ZNSt15__uniq_ptr_implIZL30nanobind_init_test_holders_extRN8nanobind7module_EE15PolymorphicBaseSt14default_deleteIS3_EE10_M_deleterEv(ptr noundef nonnull align 8 dereferenceable(8) %0) #8 align 2 {
  %2 = alloca ptr, align 8
  store ptr %0, ptr %2, align 8, !tbaa !834
  %3 = load ptr, ptr %2, align 8
  %4 = getelementptr inbounds nuw %"class.std::__uniq_ptr_impl.445", ptr %3, i32 0, i32 0
  %5 = call noundef nonnull align 1 dereferenceable(1) ptr @_ZSt3getILm1EJPZL30nanobind_init_test_holders_extRN8nanobind7module_EE15PolymorphicBaseSt14default_deleteIS3_EEERNSt13tuple_elementIXT_ESt5tupleIJDpT0_EEE4typeERSB_(ptr noundef nonnull align 8 dereferenceable(8) %4) #21
  ret ptr %5
}

; Function Attrs: mustprogress nounwind optsize uwtable
define internal noundef nonnull align 8 dereferenceable(8) ptr @_ZSt3getILm0EJPZL30nanobind_init_test_holders_extRN8nanobind7module_EE15PolymorphicBaseSt14default_deleteIS3_EEERNSt13tuple_elementIXT_ESt5tupleIJDpT0_EEE4typeERSB_(ptr noundef nonnull align 8 dereferenceable(8) %0) #8 {
  %2 = alloca ptr, align 8
  store ptr %0, ptr %2, align 8, !tbaa !836
  %3 = load ptr, ptr %2, align 8, !tbaa !836
  %4 = call noundef nonnull align 8 dereferenceable(8) ptr @_ZSt12__get_helperILm0EPZL30nanobind_init_test_holders_extRN8nanobind7module_EE15PolymorphicBaseJSt14default_deleteIS3_EEERT0_RSt11_Tuple_implIXT_EJS7_DpT1_EE(ptr noundef nonnull align 8 dereferenceable(8) %3) #21
  ret ptr %4
}

; Function Attrs: noinline noreturn nounwind optsize uwtable
define linkonce_odr hidden void @__clang_call_terminate(ptr noundef %0) #7 comdat {
  %2 = call ptr @__cxa_begin_catch(ptr %0) #20
  call void @_ZSt9terminatev() #22
  unreachable
}

; Function Attrs: inlinehint mustprogress optsize uwtable
define internal void @_ZNSt15__uniq_ptr_dataIZL30nanobind_init_test_holders_extRN8nanobind7module_EE15PolymorphicBaseSt14default_deleteIS3_ELb1ELb1EECI2St15__uniq_ptr_implIS3_S5_EEPS3_(ptr noundef nonnull align 8 dereferenceable(8) %0, ptr noundef %1) unnamed_addr #9 align 2 {
  %3 = alloca ptr, align 8
  %4 = alloca ptr, align 8
  store ptr %0, ptr %3, align 8, !tbaa !848
  store ptr %1, ptr %4, align 8, !tbaa !822
  %5 = load ptr, ptr %3, align 8
  %6 = load ptr, ptr %4, align 8, !tbaa !822
  call void @_ZNSt15__uniq_ptr_implIZL30nanobind_init_test_holders_extRN8nanobind7module_EE15PolymorphicBaseSt14default_deleteIS3_EEC2EPS3_(ptr noundef nonnull align 8 dereferenceable(8) %5, ptr noundef %6) #19
  ret void
}

; Function Attrs: inlinehint mustprogress nounwind optsize uwtable
define internal void @_ZZL30nanobind_init_test_holders_extRN8nanobind7module_EEN15PolymorphicBaseC2Ev(ptr noundef nonnull align 8 dereferenceable(8) %0) unnamed_addr #11 align 2 {
  %2 = alloca ptr, align 8
  store ptr %0, ptr %2, align 8, !tbaa !822
  %3 = load ptr, ptr %2, align 8
  store ptr getelementptr inbounds inrange(-16, 16) ({ [4 x ptr] }, ptr @_ZTVZL30nanobind_init_test_holders_extRN8nanobind7module_EE15PolymorphicBase, i32 0, i32 0, i32 2), ptr %3, align 8, !tbaa !10
  ret void
}

; Function Attrs: mustprogress nounwind optsize uwtable
define internal void @_ZNKSt14default_deleteIZL30nanobind_init_test_holders_extRN8nanobind7module_EE15PolymorphicBaseEclEPS3_(ptr noundef nonnull align 1 dereferenceable(1) %0, ptr noundef %1) #8 align 2 {
  %3 = alloca ptr, align 8
  %4 = alloca ptr, align 8
  store ptr %0, ptr %3, align 8, !tbaa !842
  store ptr %1, ptr %4, align 8, !tbaa !822
  %5 = load ptr, ptr %4, align 8, !tbaa !822
  %6 = icmp eq ptr %5, null
  br i1 %6, label %11, label %7

7:                                                ; preds = %2
  %8 = load ptr, ptr %5, align 8, !tbaa !10
  %9 = getelementptr inbounds ptr, ptr %8, i64 1
  %10 = load ptr, ptr %9, align 8
  call void %10(ptr noundef nonnull align 8 dereferenceable(8) %5) #21
  br label %11

11:                                               ; preds = %7, %2
  ret void
}

; Function Attrs: mustprogress nounwind optsize uwtable
define internal noundef nonnull align 1 dereferenceable(1) ptr @_ZNSt10unique_ptrIZL30nanobind_init_test_holders_extRN8nanobind7module_EE15PolymorphicBaseSt14default_deleteIS3_EE11get_deleterEv(ptr noundef nonnull align 8 dereferenceable(8) %0) #8 align 2 {
  %2 = alloca ptr, align 8
  store ptr %0, ptr %2, align 8, !tbaa !830
  %3 = load ptr, ptr %2, align 8
  %4 = getelementptr inbounds nuw %"class.std::unique_ptr.443", ptr %3, i32 0, i32 0
  %5 = call noundef nonnull align 1 dereferenceable(1) ptr @_ZNSt15__uniq_ptr_implIZL30nanobind_init_test_holders_extRN8nanobind7module_EE15PolymorphicBaseSt14default_deleteIS3_EE10_M_deleterEv(ptr noundef nonnull align 8 dereferenceable(8) %4) #21
  ret ptr %5
}

; Function Attrs: mustprogress nounwind optsize uwtable
define internal noundef nonnull align 8 dereferenceable(8) ptr @_ZNSt15__uniq_ptr_implIZL30nanobind_init_test_holders_extRN8nanobind7module_EE15PolymorphicBaseSt14default_deleteIS3_EE6_M_ptrEv(ptr noundef nonnull align 8 dereferenceable(8) %0) #8 align 2 {
  %2 = alloca ptr, align 8
  store ptr %0, ptr %2, align 8, !tbaa !834
  %3 = load ptr, ptr %2, align 8
  %4 = getelementptr inbounds nuw %"class.std::__uniq_ptr_impl.445", ptr %3, i32 0, i32 0
  %5 = call noundef nonnull align 8 dereferenceable(8) ptr @_ZSt3getILm0EJPZL30nanobind_init_test_holders_extRN8nanobind7module_EE15PolymorphicBaseSt14default_deleteIS3_EEERNSt13tuple_elementIXT_ESt5tupleIJDpT0_EEE4typeERSB_(ptr noundef nonnull align 8 dereferenceable(8) %4) #21
  ret ptr %5
}

; Function Attrs: mustprogress nounwind optsize uwtable
define internal void @_ZNSt10unique_ptrIZL30nanobind_init_test_holders_extRN8nanobind7module_EE15PolymorphicBaseSt14default_deleteIS3_EEC2IS5_vEEPS3_(ptr noundef nonnull align 8 dereferenceable(8) %0, ptr noundef %1) unnamed_addr #8 align 2 personality ptr @__gxx_personality_v0 {
  %3 = alloca ptr, align 8
  %4 = alloca ptr, align 8
  store ptr %0, ptr %3, align 8, !tbaa !830
  store ptr %1, ptr %4, align 8, !tbaa !822
  %5 = load ptr, ptr %3, align 8
  %6 = getelementptr inbounds nuw %"class.std::unique_ptr.443", ptr %5, i32 0, i32 0
  %7 = load ptr, ptr %4, align 8, !tbaa !822
  invoke void @_ZNSt15__uniq_ptr_dataIZL30nanobind_init_test_holders_extRN8nanobind7module_EE15PolymorphicBaseSt14default_deleteIS3_ELb1ELb1EECI2St15__uniq_ptr_implIS3_S5_EEPS3_(ptr noundef nonnull align 8 dereferenceable(8) %6, ptr noundef %7) #19
          to label %8 unwind label %9

8:                                                ; preds = %2
  ret void

9:                                                ; preds = %2
  %10 = landingpad { ptr, i32 }
          catch ptr null
  %11 = extractvalue { ptr, i32 } %10, 0
  call void @__clang_call_terminate(ptr %11) #22
  unreachable
}

; Function Attrs: inlinehint mustprogress nounwind optsize uwtable
define internal void @_ZZL30nanobind_init_test_holders_extRN8nanobind7module_EEN19PolymorphicSubclassC2Ev(ptr noundef nonnull align 8 dereferenceable(8) %0) unnamed_addr #11 align 2 {
  %2 = alloca ptr, align 8
  store ptr %0, ptr %2, align 8, !tbaa !824
  %3 = load ptr, ptr %2, align 8
  call void @_ZZL30nanobind_init_test_holders_extRN8nanobind7module_EEN15PolymorphicBaseC2Ev(ptr noundef nonnull align 8 dereferenceable(8) %3) #21
  store ptr getelementptr inbounds inrange(-16, 16) ({ [4 x ptr] }, ptr @_ZTVZL30nanobind_init_test_holders_extRN8nanobind7module_EE19PolymorphicSubclass, i32 0, i32 0, i32 2), ptr %3, align 8, !tbaa !10
  ret void
}

; Function Attrs: mustprogress nounwind optsize uwtable
define internal void @_ZNSt10unique_ptrIZL30nanobind_init_test_holders_extRN8nanobind7module_EE15PolymorphicBaseSt14default_deleteIS3_EED2Ev(ptr noundef nonnull align 8 dereferenceable(8) %0) unnamed_addr #8 align 2 {
  %2 = alloca ptr, align 8
  %3 = alloca ptr, align 8
  store ptr %0, ptr %2, align 8, !tbaa !830
  %4 = load ptr, ptr %2, align 8
  call void @llvm.lifetime.start.p0(i64 8, ptr %3) #20
  %5 = getelementptr inbounds nuw %"class.std::unique_ptr.443", ptr %4, i32 0, i32 0
  %6 = call noundef nonnull align 8 dereferenceable(8) ptr @_ZNSt15__uniq_ptr_implIZL30nanobind_init_test_holders_extRN8nanobind7module_EE15PolymorphicBaseSt14default_deleteIS3_EE6_M_ptrEv(ptr noundef nonnull align 8 dereferenceable(8) %5) #21
  store ptr %6, ptr %3, align 8, !tbaa !832
  %7 = load ptr, ptr %3, align 8, !tbaa !832
  %8 = load ptr, ptr %7, align 8, !tbaa !822
  %9 = icmp ne ptr %8, null
  br i1 %9, label %10, label %14

10:                                               ; preds = %1
  %11 = call noundef nonnull align 1 dereferenceable(1) ptr @_ZNSt10unique_ptrIZL30nanobind_init_test_holders_extRN8nanobind7module_EE15PolymorphicBaseSt14default_deleteIS3_EE11get_deleterEv(ptr noundef nonnull align 8 dereferenceable(8) %4) #21
  %12 = load ptr, ptr %3, align 8, !tbaa !832
  %13 = load ptr, ptr %12, align 8, !tbaa !822
  call void @_ZNKSt14default_deleteIZL30nanobind_init_test_holders_extRN8nanobind7module_EE15PolymorphicBaseEclEPS3_(ptr noundef nonnull align 1 dereferenceable(1) %11, ptr noundef %13) #19
  br label %14

14:                                               ; preds = %10, %1
  %15 = load ptr, ptr %3, align 8, !tbaa !832
  store ptr null, ptr %15, align 8, !tbaa !822
  call void @llvm.lifetime.end.p0(i64 8, ptr %3) #20
  ret void
}

; Function Attrs: alwaysinline mustprogress nounwind optsize uwtable
define linkonce_odr hidden noundef ptr @_ZNK8nanobind6handle3ptrEv(ptr noundef nonnull align 8 dereferenceable(8) %0) #5 comdat align 2 {
  %2 = alloca ptr, align 8
  store ptr %0, ptr %2, align 8, !tbaa !12
  %3 = load ptr, ptr %2, align 8
  %4 = getelementptr inbounds nuw %"class.nanobind::handle", ptr %3, i32 0, i32 0
  %5 = load ptr, ptr %4, align 8, !tbaa !14
  ret ptr %5
}

; Function Attrs: inlinehint mustprogress optsize uwtable
define internal void @"_ZZL30nanobind_init_test_holders_extRN8nanobind7module_EENK4$_29clEv"(ptr dead_on_unwind noalias writable sret(%"class.std::unique_ptr.443") align 8 %0, ptr noundef nonnull align 1 dereferenceable(1) %1) #9 align 2 {
  %3 = alloca ptr, align 8
  %4 = alloca ptr, align 8
  store ptr %0, ptr %3, align 8
  store ptr %1, ptr %4, align 8, !tbaa !18
  %5 = call noalias noundef nonnull ptr @_Znwm(i64 noundef 8) #23
  call void @llvm.memset.p0.i64(ptr align 8 %5, i8 0, i64 8, i1 false)
  call void @_ZZL30nanobind_init_test_holders_extRN8nanobind7module_EEN19PolymorphicSubclassC2Ev(ptr noundef nonnull align 8 dereferenceable(8) %5) #21
  call void @_ZNSt10unique_ptrIZL30nanobind_init_test_holders_extRN8nanobind7module_EE15PolymorphicBaseSt14default_deleteIS3_EEC2IS5_vEEPS3_(ptr noundef nonnull align 8 dereferenceable(8) %0, ptr noundef %5) #21
  ret void
}

; Function Attrs: alwaysinline mustprogress optsize uwtable
define internal noundef ptr @"_ZZN8nanobind6detail11func_createILb0ELb1EZL30nanobind_init_test_holders_extRNS_7module_EE4$_29St10unique_ptrIZL30nanobind_init_test_holders_extS3_E15PolymorphicBaseSt14default_deleteIS6_EEJETpTnmJEJNS_5scopeENS_4nameEEEEP7_objectOT1_PFT2_DpT3_ESt16integer_sequenceImJXspT4_EEEDpRKT5_ENKUlPvPSD_PhNS_9rv_policyEPNS0_12cleanup_listEE_clESR_SS_ST_SU_SW_"(ptr noundef nonnull align 1 dereferenceable(1) %0, ptr noundef %1, ptr noundef %2, ptr noundef %3, i32 noundef %4, ptr noundef %5) #3 align 2 {
  %7 = alloca ptr, align 8
  %8 = alloca ptr, align 8
  %9 = alloca ptr, align 8
  %10 = alloca ptr, align 8
  %11 = alloca i32, align 4
  %12 = alloca ptr, align 8
  %13 = alloca ptr, align 8
  %14 = alloca ptr, align 8
  %15 = alloca %"class.nanobind::handle", align 8
  %16 = alloca %"class.std::unique_ptr.443", align 8
  store ptr %0, ptr %7, align 8, !tbaa !18
  store ptr %1, ptr %8, align 8, !tbaa !18
  store ptr %2, ptr %9, align 8, !tbaa !188
  store ptr %3, ptr %10, align 8, !tbaa !34
  store i32 %4, ptr %11, align 4, !tbaa !20
  store ptr %5, ptr %12, align 8, !tbaa !190
  call void @llvm.lifetime.start.p0(i64 8, ptr %13) #20
  %17 = load ptr, ptr %8, align 8, !tbaa !18
  store ptr %17, ptr %13, align 8, !tbaa !826
  call void @llvm.lifetime.start.p0(i64 8, ptr %14) #20
  call void @llvm.lifetime.start.p0(i64 8, ptr %15) #20
  call void @llvm.lifetime.start.p0(i64 8, ptr %16) #20
  %18 = load ptr, ptr %13, align 8, !tbaa !826
  call void @"_ZZL30nanobind_init_test_holders_extRN8nanobind7module_EENK4$_29clEv"(ptr dead_on_unwind writable sret(%"class.std::unique_ptr.443") align 8 %16, ptr noundef nonnull align 1 dereferenceable(1) %18) #19
  %19 = load i32, ptr %11, align 4, !tbaa !20
  %20 = load ptr, ptr %12, align 8, !tbaa !190
  %21 = call ptr @_ZN8nanobind6detail11type_casterISt10unique_ptrIZL30nanobind_init_test_holders_extRNS_7module_EE15PolymorphicBaseSt14default_deleteIS5_EEiE8from_cppIS8_EENS_6handleEOT_NS_9rv_policyEPNS0_12cleanup_listE(ptr noundef nonnull align 8 dereferenceable(8) %16, i32 noundef %19, ptr noundef %20) #21
  %22 = getelementptr inbounds nuw %"class.nanobind::handle", ptr %15, i32 0, i32 0
  store ptr %21, ptr %22, align 8
  %23 = call noundef ptr @_ZNK8nanobind6handle3ptrEv(ptr noundef nonnull align 8 dereferenceable(8) %15) #19
  store ptr %23, ptr %14, align 8, !tbaa !3
  call void @_ZNSt10unique_ptrIZL30nanobind_init_test_holders_extRN8nanobind7module_EE15PolymorphicBaseSt14default_deleteIS3_EED2Ev(ptr noundef nonnull align 8 dereferenceable(8) %16) #21
  call void @llvm.lifetime.end.p0(i64 8, ptr %16) #20
  call void @llvm.lifetime.end.p0(i64 8, ptr %15) #20
  %24 = load ptr, ptr %14, align 8, !tbaa !3
  call void @llvm.lifetime.end.p0(i64 8, ptr %14) #20
  call void @llvm.lifetime.end.p0(i64 8, ptr %13) #20
  ret ptr %24
}

; Function Attrs: inlinehint mustprogress optsize uwtable
define internal noundef ptr @"_ZZN8nanobind6detail11func_createILb0ELb1EZL30nanobind_init_test_holders_extRNS_7module_EE4$_29St10unique_ptrIZL30nanobind_init_test_holders_extS3_E15PolymorphicBaseSt14default_deleteIS6_EEJETpTnmJEJNS_5scopeENS_4nameEEEEP7_objectOT1_PFT2_DpT3_ESt16integer_sequenceImJXspT4_EEEDpRKT5_ENUlPvPSD_PhNS_9rv_policyEPNS0_12cleanup_listEE_8__invokeESR_SS_ST_SU_SW_"(ptr noundef %0, ptr noundef %1, ptr noundef %2, i32 noundef %3, ptr noundef %4) #9 align 2 {
  %6 = alloca ptr, align 8
  %7 = alloca ptr, align 8
  %8 = alloca ptr, align 8
  %9 = alloca i32, align 4
  %10 = alloca ptr, align 8
  %11 = alloca %class.anon.441, align 1
  store ptr %0, ptr %6, align 8, !tbaa !18
  store ptr %1, ptr %7, align 8, !tbaa !188
  store ptr %2, ptr %8, align 8, !tbaa !34
  store i32 %3, ptr %9, align 4, !tbaa !20
  store ptr %4, ptr %10, align 8, !tbaa !190
  %12 = load ptr, ptr %6, align 8, !tbaa !18
  %13 = load ptr, ptr %7, align 8, !tbaa !188
  %14 = load ptr, ptr %8, align 8, !tbaa !34
  %15 = load i32, ptr %9, align 4, !tbaa !20
  %16 = load ptr, ptr %10, align 8, !tbaa !190
  %17 = call noundef ptr @"_ZZN8nanobind6detail11func_createILb0ELb1EZL30nanobind_init_test_holders_extRNS_7module_EE4$_29St10unique_ptrIZL30nanobind_init_test_holders_extS3_E15PolymorphicBaseSt14default_deleteIS6_EEJETpTnmJEJNS_5scopeENS_4nameEEEEP7_objectOT1_PFT2_DpT3_ESt16integer_sequenceImJXspT4_EEEDpRKT5_ENKUlPvPSD_PhNS_9rv_policyEPNS0_12cleanup_listEE_clESR_SS_ST_SU_SW_"(ptr noundef nonnull align 1 dereferenceable(1) %11, ptr noundef %12, ptr noundef %13, ptr noundef %14, i32 noundef %15, ptr noundef %16) #19
  ret ptr %17
}